; Function Attrs: mustprogress nofree norecurse nosync nounwind willreturn memory(read, inaccessiblemem: none) uwtable
define dso_local noundef i32 @_ZNK5cmELF11GetFileTypeEv(ptr nocapture noundef nonnull readonly align 8 dereferenceable(40) %0) local_unnamed_addr #4 align 2 {
  %2 = load ptr, ptr %0, align 8
  %.not.i = icmp eq ptr %2, null
  br i1 %.not.i, label %_ZNK5cmELF5ValidEv.exit.thread, label %_ZNK5cmELF5ValidEv.exit

_ZNK5cmELF5ValidEv.exit:                          ; preds = %1
  %3 = getelementptr inbounds i8, ptr %2, i64 28
  %4 = load i32, ptr %3, align 4
  br label %_ZNK5cmELF5ValidEv.exit.thread

_ZNK5cmELF5ValidEv.exit.thread:                   ; preds = %_ZNK5cmELF5ValidEv.exit, %1
  %.0 = phi i32 [ 0, %1 ], [ %4, %_ZNK5cmELF5ValidEv.exit ]
  ret i32 %.0
}